; Function Attrs: nounwind uwtable
define void @If_ObjConePrint_rec(ptr noundef %0, ptr noundef %1, ptr noundef %2) local_unnamed_addr #0 {
  %4 = getelementptr inbounds nuw i8, ptr %1, i64 80
  %.val = load i32, ptr %4, align 4, !tbaa !3
  %.not = icmp eq i32 %.val, 0
  br i1 %.not, label %5, label %62

5:                                                ; preds = %3
  %6 = getelementptr inbounds nuw i8, ptr %2, i64 4
  %7 = load i32, ptr %6, align 4, !tbaa !7
  %8 = load i32, ptr %2, align 8, !tbaa !10
  %9 = icmp eq i32 %7, %8
  br i1 %9, label %10, label %.Vec_PtrGrow.exit11_crit_edge.i

.Vec_PtrGrow.exit11_crit_edge.i:                  ; preds = %5
  %.phi.trans.insert.i = getelementptr inbounds nuw i8, ptr %2, i64 8
  %.pre.i = load ptr, ptr %.phi.trans.insert.i, align 8, !tbaa !11
  br label %Vec_PtrPush.exit

10:                                               ; preds = %5
  %11 = icmp slt i32 %7, 16
  br i1 %11, label %12, label %20

12:                                               ; preds = %10
  %13 = getelementptr inbounds nuw i8, ptr %2, i64 8
  %14 = load ptr, ptr %13, align 8, !tbaa !11
  %.not9.i.i = icmp eq ptr %14, null
  br i1 %.not9.i.i, label %17, label %15

15:                                               ; preds = %12
  %16 = tail call dereferenceable_or_null(128) ptr @realloc(ptr noundef nonnull %14, i64 noundef 128) #13
  br label %Vec_PtrGrow.exit.i

17:                                               ; preds = %12
  %18 = tail call noalias dereferenceable_or_null(128) ptr @malloc(i64 noundef 128) #14
  br label %Vec_PtrGrow.exit.i

Vec_PtrGrow.exit.i:                               ; preds = %17, %15
  %19 = phi ptr [ %16, %15 ], [ %18, %17 ]
  store ptr %19, ptr %13, align 8, !tbaa !11
  store i32 16, ptr %2, align 8, !tbaa !10
  br label %Vec_PtrPush.exit

20:                                               ; preds = %10
  %21 = shl nuw nsw i32 %7, 1
  %22 = getelementptr inbounds nuw i8, ptr %2, i64 8
  %23 = load ptr, ptr %22, align 8, !tbaa !11
  %.not9.i10.i = icmp eq ptr %23, null
  %24 = zext nneg i32 %21 to i64
  %25 = shl nuw nsw i64 %24, 3
  br i1 %.not9.i10.i, label %28, label %26

26:                                               ; preds = %20
  %27 = tail call ptr @realloc(ptr noundef nonnull %23, i64 noundef %25) #13
  br label %30

28:                                               ; preds = %20
  %29 = tail call noalias ptr @malloc(i64 noundef %25) #14
  br label %30

30:                                               ; preds = %28, %26
  %31 = phi ptr [ %27, %26 ], [ %29, %28 ]
  store ptr %31, ptr %22, align 8, !tbaa !11
  store i32 %21, ptr %2, align 8, !tbaa !10
  br label %Vec_PtrPush.exit

Vec_PtrPush.exit:                                 ; preds = %.Vec_PtrGrow.exit11_crit_edge.i, %Vec_PtrGrow.exit.i, %30
  %32 = phi ptr [ %.pre.i, %.Vec_PtrGrow.exit11_crit_edge.i ], [ %31, %30 ], [ %19, %Vec_PtrGrow.exit.i ]
  %33 = load i32, ptr %6, align 4, !tbaa !7
  %34 = add nsw i32 %33, 1
  store i32 %34, ptr %6, align 4, !tbaa !7
  %35 = sext i32 %33 to i64
  %36 = getelementptr inbounds ptr, ptr %32, i64 %35
  store ptr %4, ptr %36, align 8, !tbaa !12
  store i32 -1, ptr %4, align 4, !tbaa !3
  %.val25 = load i32, ptr %1, align 8
  %37 = and i32 %.val25, 15
  %.not26 = icmp eq i32 %37, 2
  br i1 %.not26, label %62, label %38

38:                                               ; preds = %Vec_PtrPush.exit
  %39 = getelementptr inbounds nuw i8, ptr %1, i64 40
  %40 = load ptr, ptr %39, align 8, !tbaa !13
  %.not23 = icmp eq ptr %40, null
  br i1 %.not23, label %42, label %41

41:                                               ; preds = %38
  tail call void @If_ObjConePrint_rec(ptr noundef %0, ptr noundef nonnull %40, ptr noundef nonnull %2)
  br label %42

42:                                               ; preds = %41, %38
  %43 = getelementptr inbounds nuw i8, ptr %1, i64 24
  %44 = load ptr, ptr %43, align 8, !tbaa !19
  tail call void @If_ObjConePrint_rec(ptr noundef %0, ptr noundef %44, ptr noundef nonnull %2)
  %45 = getelementptr inbounds nuw i8, ptr %1, i64 32
  %46 = load ptr, ptr %45, align 8, !tbaa !20
  tail call void @If_ObjConePrint_rec(ptr noundef %0, ptr noundef %46, ptr noundef nonnull %2)
  %47 = getelementptr inbounds nuw i8, ptr %1, i64 4
  %48 = load i32, ptr %47, align 4, !tbaa !21
  %49 = load ptr, ptr %43, align 8, !tbaa !19
  %50 = getelementptr inbounds nuw i8, ptr %49, i64 4
  %51 = load i32, ptr %50, align 4, !tbaa !21
  %52 = load ptr, ptr %45, align 8, !tbaa !20
  %53 = getelementptr inbounds nuw i8, ptr %52, i64 4
  %54 = load i32, ptr %53, align 4, !tbaa !21
  %55 = load ptr, ptr %39, align 8, !tbaa !13
  %.not24 = icmp eq ptr %55, null
  br i1 %.not24, label %59, label %56

56:                                               ; preds = %42
  %57 = getelementptr inbounds nuw i8, ptr %55, i64 4
  %58 = load i32, ptr %57, align 4, !tbaa !21
  br label %59

59:                                               ; preds = %42, %56
  %60 = phi i32 [ %58, %56 ], [ 0, %42 ]
  %61 = tail call i32 (ptr, ...) @printf(ptr noundef nonnull dereferenceable(1) @.str, i32 noundef %48, i32 noundef %51, i32 noundef %54, i32 noundef %60)
  br label %62

62:                                               ; preds = %Vec_PtrPush.exit, %3, %59
  ret void
}